; Function Attrs: mustprogress nofree norecurse nosync nounwind willreturn memory(read, inaccessiblemem: none) uwtable
define zeroext i1 @H5F_shared_has_feature(ptr noundef readonly captures(none) %0, i32 noundef %1) local_unnamed_addr #1 {
  %3 = load ptr, ptr %0, align 8, !tbaa !79
  %4 = getelementptr inbounds nuw i8, ptr %3, i64 32
  %5 = load i64, ptr %4, align 8, !tbaa !80
  %6 = zext i32 %1 to i64
  %7 = and i64 %5, %6
  %8 = icmp ne i64 %7, 0
  ret i1 %8
}